target datalayout = "e-m:e-p270:32:32-p271:32:32-p272:64:64-i64:64-i128:128-f80:128-n8:16:32:64-S128"
target triple = "x86_64-pc-linux-gnu"

%struct.AVStream = type { ptr, i32, i32, ptr, ptr, %struct.AVRational, i64, i64, i64, i32, i32, %struct.AVRational, ptr, %struct.AVRational, %struct.AVPacket, i32, %struct.AVRational, i32 }
%struct.AVPacket = type { ptr, i64, i64, ptr, i32, i32, i32, ptr, i32, i64, i64, ptr, ptr, %struct.AVRational }
%struct.AVRational = type { i32, i32 }
%struct.AVCodecParameters = type { i32, i32, i32, ptr, i32, ptr, i32, i32, i64, i32, i32, i32, i32, i32, i32, %struct.AVRational, %struct.AVRational, i32, i32, i32, i32, i32, i32, i32, %struct.AVChannelLayout, i32, i32, i32, i32, i32, i32 }
%struct.AVChannelLayout = type { i32, i32, %union.anon, ptr }
%union.anon = type { i64 }

@.str.3 = private unnamed_addr constant [9 x i8] c"sampling\00", align 1
@.str.4 = private unnamed_addr constant [12 x i8] c"YCbCr-4:2:0\00", align 1
@.str.5 = private unnamed_addr constant [12 x i8] c"YCbCr-4:4:2\00", align 1
@.str.6 = private unnamed_addr constant [12 x i8] c"YCbCr-4:4:4\00", align 1
@.str.7 = private unnamed_addr constant [29 x i8] c"Unsupported pixel format %s\0A\00", align 1
@.str.8 = private unnamed_addr constant [6 x i8] c"width\00", align 1
@.str.9 = private unnamed_addr constant [7 x i8] c"height\00", align 1
@.str.10 = private unnamed_addr constant [16 x i8] c"delivery-method\00", align 1
@.str.11 = private unnamed_addr constant [18 x i8] c"configuration-uri\00", align 1
@.str.12 = private unnamed_addr constant [14 x i8] c"configuration\00", align 1
@.str.13 = private unnamed_addr constant [49 x i8] c"Out of memory while decoding SDP configuration.\0A\00", align 1
@.str.14 = private unnamed_addr constant [18 x i8] c"Packet too large\0A\00", align 1

; Function Attrs: inlinehint nounwind willreturn memory(read) uwtable
define available_externally i32 @atoi(ptr noundef nonnull %0) #4 {
  %2 = alloca ptr, align 8
  store ptr %0, ptr %2, align 8, !tbaa !13
  %3 = load ptr, ptr %2, align 8, !tbaa !13
  %4 = call i64 @strtol(ptr noundef %3, ptr noundef null, i32 noundef 10) #10
  %5 = trunc i64 %4 to i32
  ret i32 %5
}

; Function Attrs: nounwind uwtable
define internal i32 @xiph_parse_fmtp_pair(ptr noundef %0, ptr noundef %1, ptr noundef %2, ptr noundef %3, ptr noundef %4) #0 {
  %6 = alloca i32, align 4
  %7 = alloca ptr, align 8
  %8 = alloca ptr, align 8
  %9 = alloca ptr, align 8
  %10 = alloca ptr, align 8
  %11 = alloca ptr, align 8
  %12 = alloca ptr, align 8
  %13 = alloca i32, align 4
  %14 = alloca i32, align 4
  %15 = alloca ptr, align 8
  %16 = alloca i32, align 4
  %17 = alloca i64, align 8
  store ptr %0, ptr %7, align 8, !tbaa !4
  store ptr %1, ptr %8, align 8, !tbaa !30
  store ptr %2, ptr %9, align 8, !tbaa !11
  store ptr %3, ptr %10, align 8, !tbaa !13
  store ptr %4, ptr %11, align 8, !tbaa !13
  call void @llvm.lifetime.start.p0(i64 8, ptr %12) #10
  %18 = load ptr, ptr %8, align 8, !tbaa !30
  %19 = getelementptr inbounds nuw %struct.AVStream, ptr %18, i32 0, i32 3
  %20 = load ptr, ptr %19, align 8, !tbaa !57
  store ptr %20, ptr %12, align 8, !tbaa !58
  call void @llvm.lifetime.start.p0(i64 4, ptr %13) #10
  store i32 0, ptr %13, align 4, !tbaa !9
  %21 = load ptr, ptr %10, align 8, !tbaa !13
  %22 = call i32 @strcmp(ptr noundef %21, ptr noundef @.str.3) #12
  %23 = icmp ne i32 %22, 0
  br i1 %23, label %51, label %24

24:                                               ; preds = %5
  %25 = load ptr, ptr %11, align 8, !tbaa !13
  %26 = call i32 @strcmp(ptr noundef %25, ptr noundef @.str.4) #12
  %27 = icmp ne i32 %26, 0
  br i1 %27, label %31, label %28

28:                                               ; preds = %24
  %29 = load ptr, ptr %12, align 8, !tbaa !58
  %30 = getelementptr inbounds nuw %struct.AVCodecParameters, ptr %29, i32 0, i32 7
  store i32 0, ptr %30, align 4, !tbaa !59
  br label %50

31:                                               ; preds = %24
  %32 = load ptr, ptr %11, align 8, !tbaa !13
  %33 = call i32 @strcmp(ptr noundef %32, ptr noundef @.str.5) #12
  %34 = icmp ne i32 %33, 0
  br i1 %34, label %38, label %35

35:                                               ; preds = %31
  %36 = load ptr, ptr %12, align 8, !tbaa !58
  %37 = getelementptr inbounds nuw %struct.AVCodecParameters, ptr %36, i32 0, i32 7
  store i32 4, ptr %37, align 4, !tbaa !59
  br label %49

38:                                               ; preds = %31
  %39 = load ptr, ptr %11, align 8, !tbaa !13
  %40 = call i32 @strcmp(ptr noundef %39, ptr noundef @.str.6) #12
  %41 = icmp ne i32 %40, 0
  br i1 %41, label %45, label %42

42:                                               ; preds = %38
  %43 = load ptr, ptr %12, align 8, !tbaa !58
  %44 = getelementptr inbounds nuw %struct.AVCodecParameters, ptr %43, i32 0, i32 7
  store i32 5, ptr %44, align 4, !tbaa !59
  br label %48

45:                                               ; preds = %38
  %46 = load ptr, ptr %7, align 8, !tbaa !4
  %47 = load ptr, ptr %10, align 8, !tbaa !13
  call void (ptr, i32, ptr, ...) @av_log(ptr noundef %46, i32 noundef 16, ptr noundef @.str.7, ptr noundef %47)
  store i32 -1094995529, ptr %6, align 4
  store i32 1, ptr %14, align 4
  br label %125

48:                                               ; preds = %42
  br label %49

49:                                               ; preds = %48, %35
  br label %50

50:                                               ; preds = %49, %28
  br label %123

51:                                               ; preds = %5
  %52 = load ptr, ptr %10, align 8, !tbaa !13
  %53 = call i32 @strcmp(ptr noundef %52, ptr noundef @.str.8) #12
  %54 = icmp ne i32 %53, 0
  br i1 %54, label %60, label %55

55:                                               ; preds = %51
  %56 = load ptr, ptr %11, align 8, !tbaa !13
  %57 = call i32 @atoi(ptr noundef %56) #12
  %58 = load ptr, ptr %12, align 8, !tbaa !58
  %59 = getelementptr inbounds nuw %struct.AVCodecParameters, ptr %58, i32 0, i32 13
  store i32 %57, ptr %59, align 8, !tbaa !62
  store i32 0, ptr %6, align 4
  store i32 1, ptr %14, align 4
  br label %125

60:                                               ; preds = %51
  %61 = load ptr, ptr %10, align 8, !tbaa !13
  %62 = call i32 @strcmp(ptr noundef %61, ptr noundef @.str.9) #12
  %63 = icmp ne i32 %62, 0
  br i1 %63, label %69, label %64

64:                                               ; preds = %60
  %65 = load ptr, ptr %11, align 8, !tbaa !13
  %66 = call i32 @atoi(ptr noundef %65) #12
  %67 = load ptr, ptr %12, align 8, !tbaa !58
  %68 = getelementptr inbounds nuw %struct.AVCodecParameters, ptr %67, i32 0, i32 14
  store i32 %66, ptr %68, align 4, !tbaa !63
  store i32 0, ptr %6, align 4
  store i32 1, ptr %14, align 4
  br label %125

69:                                               ; preds = %60
  %70 = load ptr, ptr %10, align 8, !tbaa !13
  %71 = call i32 @strcmp(ptr noundef %70, ptr noundef @.str.10) #12
  %72 = icmp ne i32 %71, 0
  br i1 %72, label %74, label %73

73:                                               ; preds = %69
  store i32 -1163346256, ptr %6, align 4
  store i32 1, ptr %14, align 4
  br label %125

74:                                               ; preds = %69
  %75 = load ptr, ptr %10, align 8, !tbaa !13
  %76 = call i32 @strcmp(ptr noundef %75, ptr noundef @.str.11) #12
  %77 = icmp ne i32 %76, 0
  br i1 %77, label %79, label %78

78:                                               ; preds = %74
  store i32 -1163346256, ptr %6, align 4
  store i32 1, ptr %14, align 4
  br label %125

79:                                               ; preds = %74
  %80 = load ptr, ptr %10, align 8, !tbaa !13
  %81 = call i32 @strcmp(ptr noundef %80, ptr noundef @.str.12) #12
  %82 = icmp ne i32 %81, 0
  br i1 %82, label %118, label %83

83:                                               ; preds = %79
  call void @llvm.lifetime.start.p0(i64 8, ptr %15) #10
  store ptr null, ptr %15, align 8, !tbaa !13
  call void @llvm.lifetime.start.p0(i64 4, ptr %16) #10
  call void @llvm.lifetime.start.p0(i64 8, ptr %17) #10
  %84 = load ptr, ptr %11, align 8, !tbaa !13
  %85 = call i64 @strlen(ptr noundef %84) #12
  %86 = udiv i64 %85, 4
  %87 = mul i64 %86, 3
  %88 = add i64 %87, 4
  store i64 %88, ptr %17, align 8, !tbaa !64
  %89 = load i64, ptr %17, align 8, !tbaa !64
  %90 = icmp ule i64 %89, 2147483647
  br i1 %90, label %91, label %114

91:                                               ; preds = %83
  %92 = load i64, ptr %17, align 8, !tbaa !64
  %93 = call noalias ptr @av_malloc(i64 noundef %92)
  store ptr %93, ptr %15, align 8, !tbaa !13
  %94 = load ptr, ptr %15, align 8, !tbaa !13
  %95 = icmp ne ptr %94, null
  br i1 %95, label %96, label %111

96:                                               ; preds = %91
  %97 = load ptr, ptr %15, align 8, !tbaa !13
  %98 = load ptr, ptr %11, align 8, !tbaa !13
  %99 = load i64, ptr %17, align 8, !tbaa !64
  %100 = trunc i64 %99 to i32
  %101 = call i32 @av_base64_decode(ptr noundef %97, ptr noundef %98, i32 noundef %100)
  store i32 %101, ptr %16, align 4, !tbaa !9
  %102 = load ptr, ptr %7, align 8, !tbaa !4
  %103 = load ptr, ptr %15, align 8, !tbaa !13
  %104 = load ptr, ptr %15, align 8, !tbaa !13
  %105 = load i32, ptr %16, align 4, !tbaa !9
  %106 = sext i32 %105 to i64
  %107 = getelementptr inbounds i8, ptr %104, i64 %106
  %108 = load ptr, ptr %12, align 8, !tbaa !58
  %109 = load ptr, ptr %9, align 8, !tbaa !11
  %110 = call i32 @parse_packed_headers(ptr noundef %102, ptr noundef %103, ptr noundef %107, ptr noundef %108, ptr noundef %109)
  store i32 %110, ptr %13, align 4, !tbaa !9
  br label %113

111:                                              ; preds = %91
  %112 = load ptr, ptr %7, align 8, !tbaa !4
  call void (ptr, i32, ptr, ...) @av_log(ptr noundef %112, i32 noundef 16, ptr noundef @.str.13)
  store i32 -12, ptr %13, align 4, !tbaa !9
  br label %113

113:                                              ; preds = %111, %96
  br label %116

114:                                              ; preds = %83
  %115 = load ptr, ptr %7, align 8, !tbaa !4
  call void (ptr, i32, ptr, ...) @av_log(ptr noundef %115, i32 noundef 16, ptr noundef @.str.14)
  store i32 -1094995529, ptr %13, align 4, !tbaa !9
  br label %116

116:                                              ; preds = %114, %113
  %117 = load ptr, ptr %15, align 8, !tbaa !13
  call void @av_free(ptr noundef %117)
  call void @llvm.lifetime.end.p0(i64 8, ptr %17) #10
  call void @llvm.lifetime.end.p0(i64 4, ptr %16) #10
  call void @llvm.lifetime.end.p0(i64 8, ptr %15) #10
  br label %118

118:                                              ; preds = %116, %79
  br label %119

119:                                              ; preds = %118
  br label %120

120:                                              ; preds = %119
  br label %121

121:                                              ; preds = %120
  br label %122

122:                                              ; preds = %121
  br label %123

123:                                              ; preds = %122, %50
  %124 = load i32, ptr %13, align 4, !tbaa !9
  store i32 %124, ptr %6, align 4
  store i32 1, ptr %14, align 4
  br label %125

125:                                              ; preds = %123, %78, %73, %64, %55, %45
  call void @llvm.lifetime.end.p0(i64 4, ptr %13) #10
  call void @llvm.lifetime.end.p0(i64 8, ptr %12) #10
  %126 = load i32, ptr %6, align 4
  ret i32 %126
}