; Function Attrs: nounwind uwtable
define internal range(i32 -2147483648, 1) i32 @xiph_parse_fmtp_pair(ptr noundef %0, ptr noundef readonly captures(none) %1, ptr noundef writeonly captures(none) %2, ptr noundef %3, ptr noundef %4) #0 {
  %6 = getelementptr inbounds nuw i8, ptr %1, i64 16
  %7 = load ptr, ptr %6, align 8, !tbaa !47
  %8 = tail call i32 @strcmp(ptr noundef nonnull dereferenceable(1) %3, ptr noundef nonnull dereferenceable(9) @.str.3) #9
  %.not = icmp eq i32 %8, 0
  br i1 %.not, label %9, label %22

9:                                                ; preds = %5
  %10 = tail call i32 @strcmp(ptr noundef nonnull dereferenceable(1) %4, ptr noundef nonnull dereferenceable(12) @.str.4) #9
  %.not41 = icmp eq i32 %10, 0
  br i1 %.not41, label %11, label %13

11:                                               ; preds = %9
  %12 = getelementptr inbounds nuw i8, ptr %7, i64 44
  store i32 0, ptr %12, align 4, !tbaa !48
  br label %57

13:                                               ; preds = %9
  %14 = tail call i32 @strcmp(ptr noundef nonnull dereferenceable(1) %4, ptr noundef nonnull dereferenceable(12) @.str.5) #9
  %.not42 = icmp eq i32 %14, 0
  br i1 %.not42, label %15, label %17

15:                                               ; preds = %13
  %16 = getelementptr inbounds nuw i8, ptr %7, i64 44
  store i32 4, ptr %16, align 4, !tbaa !48
  br label %57

17:                                               ; preds = %13
  %18 = tail call i32 @strcmp(ptr noundef nonnull dereferenceable(1) %4, ptr noundef nonnull dereferenceable(12) @.str.6) #9
  %.not43 = icmp eq i32 %18, 0
  br i1 %.not43, label %19, label %21

19:                                               ; preds = %17
  %20 = getelementptr inbounds nuw i8, ptr %7, i64 44
  store i32 5, ptr %20, align 4, !tbaa !48
  br label %57

21:                                               ; preds = %17
  tail call void (ptr, i32, ptr, ...) @av_log(ptr noundef %0, i32 noundef 16, ptr noundef nonnull @.str.7, ptr noundef nonnull %3) #8
  br label %57

22:                                               ; preds = %5
  %23 = tail call i32 @strcmp(ptr noundef nonnull dereferenceable(1) %3, ptr noundef nonnull dereferenceable(6) @.str.8) #9
  %.not44 = icmp eq i32 %23, 0
  br i1 %.not44, label %24, label %28

24:                                               ; preds = %22
  %25 = tail call i64 @strtol(ptr noundef nonnull captures(none) %4, ptr noundef null, i32 noundef 10) #8
  %26 = trunc i64 %25 to i32
  %27 = getelementptr inbounds nuw i8, ptr %7, i64 72
  store i32 %26, ptr %27, align 8, !tbaa !51
  br label %57

28:                                               ; preds = %22
  %29 = tail call i32 @strcmp(ptr noundef nonnull dereferenceable(1) %3, ptr noundef nonnull dereferenceable(7) @.str.9) #9
  %.not45 = icmp eq i32 %29, 0
  br i1 %.not45, label %30, label %34

30:                                               ; preds = %28
  %31 = tail call i64 @strtol(ptr noundef nonnull captures(none) %4, ptr noundef null, i32 noundef 10) #8
  %32 = trunc i64 %31 to i32
  %33 = getelementptr inbounds nuw i8, ptr %7, i64 76
  store i32 %32, ptr %33, align 4, !tbaa !52
  br label %57

34:                                               ; preds = %28
  %35 = tail call i32 @strcmp(ptr noundef nonnull dereferenceable(1) %3, ptr noundef nonnull dereferenceable(16) @.str.10) #9
  %.not46 = icmp eq i32 %35, 0
  br i1 %.not46, label %57, label %36

36:                                               ; preds = %34
  %37 = tail call i32 @strcmp(ptr noundef nonnull dereferenceable(1) %3, ptr noundef nonnull dereferenceable(18) @.str.11) #9
  %.not47 = icmp eq i32 %37, 0
  br i1 %.not47, label %57, label %38

38:                                               ; preds = %36
  %39 = tail call i32 @strcmp(ptr noundef nonnull dereferenceable(1) %3, ptr noundef nonnull dereferenceable(14) @.str.12) #9
  %.not48 = icmp eq i32 %39, 0
  br i1 %.not48, label %40, label %57

40:                                               ; preds = %38
  %41 = tail call i64 @strlen(ptr noundef nonnull dereferenceable(1) %4) #9
  %42 = lshr i64 %41, 2
  %43 = mul nuw i64 %42, 3
  %44 = add nuw i64 %43, 4
  %45 = icmp ult i64 %41, 2863311528
  br i1 %45, label %46, label %55

46:                                               ; preds = %40
  %47 = tail call noalias ptr @av_malloc(i64 noundef %44) #8
  %.not49 = icmp eq ptr %47, null
  br i1 %.not49, label %54, label %48

48:                                               ; preds = %46
  %49 = trunc nuw nsw i64 %44 to i32
  %50 = tail call i32 @av_base64_decode(ptr noundef nonnull %47, ptr noundef nonnull %4, i32 noundef %49) #8
  %51 = sext i32 %50 to i64
  %52 = getelementptr inbounds i8, ptr %47, i64 %51
  %53 = tail call fastcc i32 @parse_packed_headers(ptr noundef %0, ptr noundef %47, ptr noundef %52, ptr noundef %7, ptr noundef %2)
  br label %56

54:                                               ; preds = %46
  tail call void (ptr, i32, ptr, ...) @av_log(ptr noundef %0, i32 noundef 16, ptr noundef nonnull @.str.13) #8
  br label %56

55:                                               ; preds = %40
  tail call void (ptr, i32, ptr, ...) @av_log(ptr noundef %0, i32 noundef 16, ptr noundef nonnull @.str.14) #8
  br label %56

56:                                               ; preds = %48, %54, %55
  %.037 = phi ptr [ %47, %48 ], [ null, %54 ], [ null, %55 ]
  %.1 = phi i32 [ %53, %48 ], [ -12, %54 ], [ -1094995529, %55 ]
  tail call void @av_free(ptr noundef %.037) #8
  br label %57

57:                                               ; preds = %15, %19, %11, %56, %38, %36, %34, %30, %24, %21
  %.0 = phi i32 [ 0, %30 ], [ 0, %24 ], [ -1094995529, %21 ], [ -1163346256, %34 ], [ -1163346256, %36 ], [ 0, %38 ], [ %.1, %56 ], [ 0, %19 ], [ 0, %15 ], [ 0, %11 ]
  ret i32 %.0
}